target datalayout = "e-m:e-p270:32:32-p271:32:32-p272:64:64-i64:64-i128:128-f80:128-n8:16:32:64-S128"
target triple = "x86_64-pc-linux-gnu"

%class.PhaseValues = type { %class.PhaseTransform, i8, ptr, ptr, [137 x ptr], [137 x ptr], [20 x ptr] }
%class.PhaseTransform = type { ptr, %class.Phase }
%class.Phase = type { i32, ptr }
%class.Node = type <{ ptr, ptr, ptr, i32, i32, i32, i32, i32, i32, i32, [4 x i8] }>
%class.Type.base = type <{ ptr, ptr, i32 }>
%class.TypeF = type { %class.Type.base, float }
%class.Type_Array = type { ptr, i32, ptr }

@_ZN4Type3TOPE = external global ptr, align 8
@_ZN4Type5FLOATE = external global ptr, align 8
@_ZN8TypeLong4LONGE = external global ptr, align 8

; Function Attrs: mustprogress nounwind uwtable
define linkonce_odr hidden noundef ptr @_ZNK10Type_Array11fast_lookupEj(ptr noundef nonnull align 8 dereferenceable(24) %0, i32 noundef %1) #1 comdat align 2 {
  %3 = alloca ptr, align 8
  %4 = alloca i32, align 4
  store ptr %0, ptr %3, align 8
  store i32 %1, ptr %4, align 4
  %5 = load ptr, ptr %3, align 8
  %6 = getelementptr inbounds %class.Type_Array, ptr %5, i32 0, i32 2
  %7 = load ptr, ptr %6, align 8
  %8 = load i32, ptr %4, align 4
  %9 = zext i32 %8 to i64
  %10 = getelementptr inbounds ptr, ptr %7, i64 %9
  %11 = load ptr, ptr %10, align 8
  ret ptr %11
}

; Function Attrs: mustprogress nounwind uwtable
define linkonce_odr hidden noundef float @_ZNK4Type4getfEv(ptr noundef nonnull align 8 dereferenceable(20) %0) #1 comdat align 2 {
  %2 = alloca ptr, align 8
  store ptr %0, ptr %2, align 8
  %3 = load ptr, ptr %2, align 8
  %4 = getelementptr inbounds %class.TypeF, ptr %3, i32 0, i32 1
  %5 = load float, ptr %4, align 4
  ret float %5
}

; Function Attrs: mustprogress nounwind uwtable
define linkonce_odr hidden noundef ptr @_ZNK4Type17is_float_constantEv(ptr noundef nonnull align 8 dereferenceable(20) %0) #1 comdat align 2 {
  %2 = alloca ptr, align 8
  store ptr %0, ptr %2, align 8
  %3 = load ptr, ptr %2, align 8
  ret ptr %3
}

; Function Attrs: mustprogress nounwind uwtable
define linkonce_odr hidden noundef ptr @_ZNK11PhaseValues4typeEPK4Node(ptr noundef nonnull align 8 dereferenceable(2400) %0, ptr noundef %1) #1 comdat align 2 {
  %3 = alloca ptr, align 8
  %4 = alloca ptr, align 8
  %5 = alloca ptr, align 8
  store ptr %0, ptr %3, align 8
  store ptr %1, ptr %4, align 8
  %6 = load ptr, ptr %3, align 8
  %7 = getelementptr inbounds %class.PhaseValues, ptr %6, i32 0, i32 3
  %8 = load ptr, ptr %7, align 8
  %9 = load ptr, ptr %4, align 8
  %10 = getelementptr inbounds %class.Node, ptr %9, i32 0, i32 7
  %11 = load i32, ptr %10, align 8
  %12 = call noundef ptr @_ZNK10Type_Array11fast_lookupEj(ptr noundef nonnull align 8 dereferenceable(24) %8, i32 noundef %11)
  store ptr %12, ptr %5, align 8
  %13 = load ptr, ptr %5, align 8
  ret ptr %13
}

; Function Attrs: mustprogress nounwind uwtable
define linkonce_odr hidden noundef ptr @_ZNK4Node2inEj(ptr noundef nonnull align 8 dereferenceable(52) %0, i32 noundef %1) #1 comdat align 2 {
  %3 = alloca ptr, align 8
  %4 = alloca i32, align 4
  store ptr %0, ptr %3, align 8
  store i32 %1, ptr %4, align 4
  %5 = load ptr, ptr %3, align 8
  %6 = getelementptr inbounds %class.Node, ptr %5, i32 0, i32 1
  %7 = load ptr, ptr %6, align 8
  %8 = load i32, ptr %4, align 4
  %9 = zext i32 %8 to i64
  %10 = getelementptr inbounds ptr, ptr %7, i64 %9
  %11 = load ptr, ptr %10, align 8
  ret ptr %11
}

; Function Attrs: mustprogress nounwind uwtable
define hidden noundef ptr @_ZNK11ConvF2LNode5ValueEP8PhaseGVN(ptr noundef nonnull align 8 dereferenceable(64) %0, ptr noundef %1) unnamed_addr #1 align 2 {
  %3 = alloca ptr, align 8
  %4 = alloca ptr, align 8
  %5 = alloca ptr, align 8
  %6 = alloca ptr, align 8
  %7 = alloca ptr, align 8
  store ptr %0, ptr %4, align 8
  store ptr %1, ptr %5, align 8
  %8 = load ptr, ptr %4, align 8
  %9 = load ptr, ptr %5, align 8
  %10 = call noundef ptr @_ZNK4Node2inEj(ptr noundef nonnull align 8 dereferenceable(52) %8, i32 noundef 1)
  %11 = call noundef ptr @_ZNK11PhaseValues4typeEPK4Node(ptr noundef nonnull align 8 dereferenceable(2400) %9, ptr noundef %10)
  store ptr %11, ptr %6, align 8
  %12 = load ptr, ptr %6, align 8
  %13 = load ptr, ptr @_ZN4Type3TOPE, align 8
  %14 = icmp eq ptr %12, %13
  br i1 %14, label %15, label %17

15:                                               ; preds = %2
  %16 = load ptr, ptr @_ZN4Type3TOPE, align 8
  store ptr %16, ptr %3, align 8
  br label %30

17:                                               ; preds = %2
  %18 = load ptr, ptr %6, align 8
  %19 = load ptr, ptr @_ZN4Type5FLOATE, align 8
  %20 = icmp eq ptr %18, %19
  br i1 %20, label %21, label %23

21:                                               ; preds = %17
  %22 = load ptr, ptr @_ZN8TypeLong4LONGE, align 8
  store ptr %22, ptr %3, align 8
  br label %30

23:                                               ; preds = %17
  %24 = load ptr, ptr %6, align 8
  %25 = call noundef ptr @_ZNK4Type17is_float_constantEv(ptr noundef nonnull align 8 dereferenceable(20) %24)
  store ptr %25, ptr %7, align 8
  %26 = load ptr, ptr %7, align 8
  %27 = call noundef float @_ZNK4Type4getfEv(ptr noundef nonnull align 8 dereferenceable(20) %26)
  %28 = call noundef i64 @_ZN13SharedRuntime3f2lEf(float noundef %27)
  %29 = call noundef ptr @_ZN8TypeLong4makeEl(i64 noundef %28)
  store ptr %29, ptr %3, align 8
  br label %30

30:                                               ; preds = %23, %21, %15
  %31 = load ptr, ptr %3, align 8
  ret ptr %31
}